; Function Attrs: mustprogress nounwind uwtable
define hidden void @_ZN6hermes10generateJSERN4llvh11raw_ostreamEPNS_6ESTree4NodeEb(ptr noundef nonnull align 8 dereferenceable(36) %OS, ptr noundef %root, i1 noundef zeroext %pretty) local_unnamed_addr #0 {
entry:
  %genJS = alloca %"class.hermes::(anonymous namespace)::GenJS", align 8
  %frombool.i = zext i1 %pretty to i8
  store ptr %OS, ptr %genJS, align 8
  %pretty_.i = getelementptr inbounds nuw i8, ptr %genJS, i64 8
  store i8 %frombool.i, ptr %pretty_.i, align 8
  %indent_.i = getelementptr inbounds nuw i8, ptr %genJS, i64 12
  store i32 0, ptr %indent_.i, align 4
  call fastcc void @_ZN6hermes6ESTree24RecursiveVisitorDispatchINS_12_GLOBAL__N_15GenJSELb1EE5visitERS3_PNS0_4NodeES7_(ptr noundef nonnull align 8 dereferenceable(16) %genJS, ptr noundef %root)
  %0 = load ptr, ptr %genJS, align 8
  %OutBufCur.i.i = getelementptr inbounds nuw i8, ptr %0, i64 24
  %1 = load ptr, ptr %OutBufCur.i.i, align 8
  %OutBufEnd.i.i = getelementptr inbounds nuw i8, ptr %0, i64 16
  %2 = load ptr, ptr %OutBufEnd.i.i, align 8
  %cmp.not.i.i = icmp ult ptr %1, %2
  br i1 %cmp.not.i.i, label %if.end.i.i, label %if.then.i.i

if.then.i.i:                                      ; preds = %entry
  %call.i.i = tail call noundef nonnull align 8 dereferenceable(36) ptr @_ZN4llvh11raw_ostream5writeEh(ptr noundef nonnull align 8 dereferenceable(36) %0, i8 noundef zeroext 10) #12
  br label %_ZN6hermes12_GLOBAL__N_15GenJS4doItEPNS_6ESTree4NodeE.exit

if.end.i.i:                                       ; preds = %entry
  %incdec.ptr.i.i = getelementptr inbounds nuw i8, ptr %1, i64 1
  store ptr %incdec.ptr.i.i, ptr %OutBufCur.i.i, align 8
  store i8 10, ptr %1, align 1
  br label %_ZN6hermes12_GLOBAL__N_15GenJS4doItEPNS_6ESTree4NodeE.exit

_ZN6hermes12_GLOBAL__N_15GenJS4doItEPNS_6ESTree4NodeE.exit: ; preds = %if.then.i.i, %if.end.i.i
  ret void
}